target datalayout = "e-m:e-p270:32:32-p271:32:32-p272:64:64-i64:64-i128:128-f80:128-n8:16:32:64-S128"
target triple = "x86_64-pc-linux-gnu"

%struct.PlanState = type { i32, ptr, ptr, ptr, ptr, ptr, ptr, ptr, ptr, ptr, ptr, ptr, ptr, ptr, ptr, ptr, ptr, ptr, i8, ptr, ptr, ptr, ptr, ptr, i8, i8, i8, i8, i8, i8, i8, i8 }
%struct.HashJoinTableData = type { i32, i32, i32, i32, i32, %union.anon, i8, ptr, i32, i32, ptr, i32, i32, i32, i32, i8, double, double, double, ptr, ptr, i64, i64, i64, i64, i64, ptr, ptr, ptr, ptr, ptr, ptr, ptr, ptr, i64 }
%union.anon = type { ptr }
%struct.proclist_head = type { i32, i32 }
%struct.Barrier = type { i8, i32, i32, i32, i32, i8, %struct.ConditionVariable }
%struct.ConditionVariable = type { i8, %struct.proclist_head }
%struct.ParallelHashJoinBatchAccessor = type { ptr, i64, i64, i64, i64, i64, i8, i8, i8, ptr, ptr }
%struct.ParallelHashJoinBatch = type { i64, %struct.Barrier, i64, i64, i64, i64, i64, i8, i8 }
%struct.HashJoinState = type { %struct.JoinState, ptr, ptr, ptr, i32, i32, i32, ptr, ptr, ptr, ptr, ptr, ptr, i32, i8, i8 }
%struct.JoinState = type { %struct.PlanState, i32, i8, ptr }

; Function Attrs: nounwind uwtable
define dso_local void @ExecPrepHashTableForUnmatched(ptr noundef %0) #0 {
  %2 = alloca ptr, align 8
  store ptr %0, ptr %2, align 8
  %3 = load ptr, ptr %2, align 8
  %4 = getelementptr inbounds nuw %struct.HashJoinState, ptr %3, i32 0, i32 5
  store i32 0, ptr %4, align 4
  %5 = load ptr, ptr %2, align 8
  %6 = getelementptr inbounds nuw %struct.HashJoinState, ptr %5, i32 0, i32 6
  store i32 0, ptr %6, align 8
  %7 = load ptr, ptr %2, align 8
  %8 = getelementptr inbounds nuw %struct.HashJoinState, ptr %7, i32 0, i32 7
  store ptr null, ptr %8, align 8
  ret void
}

; Function Attrs: nounwind uwtable
define dso_local zeroext i1 @ExecParallelPrepHashTableForUnmatched(ptr noundef %0) #0 {
  %2 = alloca i1, align 1
  %3 = alloca ptr, align 8
  %4 = alloca ptr, align 8
  %5 = alloca i32, align 4
  %6 = alloca ptr, align 8
  %7 = alloca i32, align 4
  store ptr %0, ptr %3, align 8
  call void @llvm.lifetime.start.p0(i64 8, ptr %4) #9
  %8 = load ptr, ptr %3, align 8
  %9 = getelementptr inbounds nuw %struct.HashJoinState, ptr %8, i32 0, i32 3
  %10 = load ptr, ptr %9, align 8
  store ptr %10, ptr %4, align 8
  call void @llvm.lifetime.start.p0(i64 4, ptr %5) #9
  %11 = load ptr, ptr %4, align 8
  %12 = getelementptr inbounds nuw %struct.HashJoinTableData, ptr %11, i32 0, i32 12
  %13 = load i32, ptr %12, align 4
  store i32 %13, ptr %5, align 4
  call void @llvm.lifetime.start.p0(i64 8, ptr %6) #9
  %14 = load ptr, ptr %4, align 8
  %15 = getelementptr inbounds nuw %struct.HashJoinTableData, ptr %14, i32 0, i32 33
  %16 = load ptr, ptr %15, align 8
  %17 = load i32, ptr %5, align 4
  %18 = sext i32 %17 to i64
  %19 = getelementptr inbounds %struct.ParallelHashJoinBatchAccessor, ptr %16, i64 %18
  %20 = getelementptr inbounds nuw %struct.ParallelHashJoinBatchAccessor, ptr %19, i32 0, i32 0
  %21 = load ptr, ptr %20, align 8
  store ptr %21, ptr %6, align 8
  %22 = load ptr, ptr %6, align 8
  %23 = getelementptr inbounds nuw %struct.ParallelHashJoinBatch, ptr %22, i32 0, i32 1
  %24 = call zeroext i1 @BarrierArriveAndDetachExceptLast(ptr noundef %23)
  br i1 %24, label %84, label %25

25:                                               ; preds = %1
  %26 = load ptr, ptr %4, align 8
  %27 = getelementptr inbounds nuw %struct.HashJoinTableData, ptr %26, i32 0, i32 33
  %28 = load ptr, ptr %27, align 8
  %29 = load ptr, ptr %4, align 8
  %30 = getelementptr inbounds nuw %struct.HashJoinTableData, ptr %29, i32 0, i32 12
  %31 = load i32, ptr %30, align 4
  %32 = sext i32 %31 to i64
  %33 = getelementptr inbounds %struct.ParallelHashJoinBatchAccessor, ptr %28, i64 %32
  %34 = getelementptr inbounds nuw %struct.ParallelHashJoinBatchAccessor, ptr %33, i32 0, i32 8
  store i8 1, ptr %34, align 2
  %35 = load ptr, ptr %4, align 8
  %36 = getelementptr inbounds nuw %struct.HashJoinTableData, ptr %35, i32 0, i32 33
  %37 = load ptr, ptr %36, align 8
  %38 = load i32, ptr %5, align 4
  %39 = sext i32 %38 to i64
  %40 = getelementptr inbounds %struct.ParallelHashJoinBatchAccessor, ptr %37, i64 %39
  %41 = getelementptr inbounds nuw %struct.ParallelHashJoinBatchAccessor, ptr %40, i32 0, i32 9
  %42 = load ptr, ptr %41, align 8
  call void @sts_end_parallel_scan(ptr noundef %42)
  %43 = load ptr, ptr %4, align 8
  %44 = getelementptr inbounds nuw %struct.HashJoinTableData, ptr %43, i32 0, i32 33
  %45 = load ptr, ptr %44, align 8
  %46 = load i32, ptr %5, align 4
  %47 = sext i32 %46 to i64
  %48 = getelementptr inbounds %struct.ParallelHashJoinBatchAccessor, ptr %45, i64 %47
  %49 = getelementptr inbounds nuw %struct.ParallelHashJoinBatchAccessor, ptr %48, i32 0, i32 10
  %50 = load ptr, ptr %49, align 8
  call void @sts_end_parallel_scan(ptr noundef %50)
  %51 = load ptr, ptr %4, align 8
  %52 = getelementptr inbounds nuw %struct.HashJoinTableData, ptr %51, i32 0, i32 23
  %53 = load i64, ptr %52, align 8
  %54 = load ptr, ptr %6, align 8
  %55 = getelementptr inbounds nuw %struct.ParallelHashJoinBatch, ptr %54, i32 0, i32 3
  %56 = load i64, ptr %55, align 8
  %57 = load ptr, ptr %4, align 8
  %58 = getelementptr inbounds nuw %struct.HashJoinTableData, ptr %57, i32 0, i32 0
  %59 = load i32, ptr %58, align 8
  %60 = sext i32 %59 to i64
  %61 = mul i64 8, %60
  %62 = add i64 %56, %61
  %63 = icmp ugt i64 %53, %62
  br i1 %63, label %64, label %68

64:                                               ; preds = %25
  %65 = load ptr, ptr %4, align 8
  %66 = getelementptr inbounds nuw %struct.HashJoinTableData, ptr %65, i32 0, i32 23
  %67 = load i64, ptr %66, align 8
  br label %78

68:                                               ; preds = %25
  %69 = load ptr, ptr %6, align 8
  %70 = getelementptr inbounds nuw %struct.ParallelHashJoinBatch, ptr %69, i32 0, i32 3
  %71 = load i64, ptr %70, align 8
  %72 = load ptr, ptr %4, align 8
  %73 = getelementptr inbounds nuw %struct.HashJoinTableData, ptr %72, i32 0, i32 0
  %74 = load i32, ptr %73, align 8
  %75 = sext i32 %74 to i64
  %76 = mul i64 8, %75
  %77 = add i64 %71, %76
  br label %78

78:                                               ; preds = %68, %64
  %79 = phi i64 [ %67, %64 ], [ %77, %68 ]
  %80 = load ptr, ptr %4, align 8
  %81 = getelementptr inbounds nuw %struct.HashJoinTableData, ptr %80, i32 0, i32 23
  store i64 %79, ptr %81, align 8
  %82 = load ptr, ptr %4, align 8
  %83 = getelementptr inbounds nuw %struct.HashJoinTableData, ptr %82, i32 0, i32 12
  store i32 -1, ptr %83, align 4
  store i1 false, ptr %2, align 1
  store i32 1, ptr %7, align 4
  br label %102

84:                                               ; preds = %1
  %85 = load ptr, ptr %6, align 8
  %86 = getelementptr inbounds nuw %struct.ParallelHashJoinBatch, ptr %85, i32 0, i32 8
  %87 = load i8, ptr %86, align 1, !range !4, !noundef !5
  %88 = trunc i8 %87 to i1
  br i1 %88, label %89, label %100

89:                                               ; preds = %84
  %90 = load ptr, ptr %4, align 8
  %91 = getelementptr inbounds nuw %struct.HashJoinTableData, ptr %90, i32 0, i32 33
  %92 = load ptr, ptr %91, align 8
  %93 = load ptr, ptr %4, align 8
  %94 = getelementptr inbounds nuw %struct.HashJoinTableData, ptr %93, i32 0, i32 12
  %95 = load i32, ptr %94, align 4
  %96 = sext i32 %95 to i64
  %97 = getelementptr inbounds %struct.ParallelHashJoinBatchAccessor, ptr %92, i64 %96
  %98 = getelementptr inbounds nuw %struct.ParallelHashJoinBatchAccessor, ptr %97, i32 0, i32 8
  store i8 1, ptr %98, align 2
  %99 = load ptr, ptr %4, align 8
  call void @ExecHashTableDetachBatch(ptr noundef %99)
  store i1 false, ptr %2, align 1
  store i32 1, ptr %7, align 4
  br label %102

100:                                              ; preds = %84
  %101 = load ptr, ptr %3, align 8
  call void @ExecPrepHashTableForUnmatched(ptr noundef %101)
  store i1 true, ptr %2, align 1
  store i32 1, ptr %7, align 4
  br label %102

102:                                              ; preds = %100, %89, %78
  call void @llvm.lifetime.end.p0(i64 8, ptr %6) #9
  call void @llvm.lifetime.end.p0(i64 4, ptr %5) #9
  call void @llvm.lifetime.end.p0(i64 8, ptr %4) #9
  %103 = load i1, ptr %2, align 1
  ret i1 %103
}