; Function Attrs: nounwind uwtable
define dso_local noundef zeroext i1 @ExecParallelPrepHashTableForUnmatched(ptr noundef captures(none) %0) local_unnamed_addr #0 {
  %2 = getelementptr inbounds nuw i8, ptr %0, i64 232
  %3 = load ptr, ptr %2, align 8
  %4 = getelementptr inbounds nuw i8, ptr %3, i64 68
  %5 = load i32, ptr %4, align 4
  %6 = getelementptr inbounds nuw i8, ptr %3, i64 224
  %7 = load ptr, ptr %6, align 8
  %8 = sext i32 %5 to i64
  %9 = getelementptr inbounds %struct.ParallelHashJoinBatchAccessor, ptr %7, i64 %8
  %10 = load ptr, ptr %9, align 8
  %11 = getelementptr inbounds nuw i8, ptr %10, i64 8
  %12 = tail call zeroext i1 @BarrierArriveAndDetachExceptLast(ptr noundef nonnull %11) #16
  br i1 %12, label %32, label %13

13:                                               ; preds = %1
  %14 = load ptr, ptr %6, align 8
  %15 = load i32, ptr %4, align 4
  %16 = sext i32 %15 to i64
  %17 = getelementptr inbounds %struct.ParallelHashJoinBatchAccessor, ptr %14, i64 %16, i32 8
  store i8 1, ptr %17, align 2
  %18 = load ptr, ptr %6, align 8
  %19 = getelementptr inbounds %struct.ParallelHashJoinBatchAccessor, ptr %18, i64 %8, i32 9
  %20 = load ptr, ptr %19, align 8
  tail call void @sts_end_parallel_scan(ptr noundef %20) #16
  %21 = load ptr, ptr %6, align 8
  %22 = getelementptr inbounds %struct.ParallelHashJoinBatchAccessor, ptr %21, i64 %8, i32 10
  %23 = load ptr, ptr %22, align 8
  tail call void @sts_end_parallel_scan(ptr noundef %23) #16
  %24 = getelementptr inbounds nuw i8, ptr %3, i64 144
  %25 = load i64, ptr %24, align 8
  %26 = getelementptr inbounds nuw i8, ptr %10, i64 56
  %27 = load i64, ptr %26, align 8
  %28 = load i32, ptr %3, align 8
  %29 = sext i32 %28 to i64
  %30 = shl nsw i64 %29, 3
  %31 = add i64 %30, %27
  %. = tail call i64 @llvm.umax.i64(i64 %25, i64 %31)
  store i64 %., ptr %24, align 8
  store i32 -1, ptr %4, align 4
  br label %45

32:                                               ; preds = %1
  %33 = getelementptr inbounds nuw i8, ptr %10, i64 89
  %34 = load i8, ptr %33, align 1, !range !4, !noundef !5
  %35 = trunc nuw i8 %34 to i1
  br i1 %35, label %36, label %41

36:                                               ; preds = %32
  %37 = load ptr, ptr %6, align 8
  %38 = load i32, ptr %4, align 4
  %39 = sext i32 %38 to i64
  %40 = getelementptr inbounds %struct.ParallelHashJoinBatchAccessor, ptr %37, i64 %39, i32 8
  store i8 1, ptr %40, align 2
  tail call void @ExecHashTableDetachBatch(ptr noundef nonnull %3)
  br label %45

41:                                               ; preds = %32
  %42 = getelementptr inbounds nuw i8, ptr %0, i64 244
  store i32 0, ptr %42, align 4
  %43 = getelementptr inbounds nuw i8, ptr %0, i64 248
  store i32 0, ptr %43, align 8
  %44 = getelementptr inbounds nuw i8, ptr %0, i64 256
  store ptr null, ptr %44, align 8
  br label %45

45:                                               ; preds = %41, %36, %13
  %.0 = phi i1 [ false, %36 ], [ true, %41 ], [ false, %13 ]
  ret i1 %.0
}